target datalayout = "e-m:e-p270:32:32-p271:32:32-p272:64:64-i64:64-i128:128-f80:128-n8:16:32:64-S128"
target triple = "x86_64-pc-linux-gnu"

%struct.URLContext = type { ptr, ptr, ptr, ptr, i32, i32, i32, i32, %struct.AVIOInterruptCB, i64, ptr, ptr, i32 }
%struct.AVIOInterruptCB = type { ptr, ptr }
%struct.TCPContext = type { ptr, i32, i32, ptr, ptr, i32, i32, i32, i32, i32, i32, i32 }

@.str.16 = private unnamed_addr constant [30 x i8] c"Assertion %s failed at %s:%d\0A\00", align 1
@.str.17 = private unnamed_addr constant [11 x i8] c"sc->listen\00", align 1
@.str.18 = private unnamed_addr constant [18 x i8] c"libavformat/tcp.c\00", align 1

; Function Attrs: nounwind uwtable
define internal i32 @tcp_accept(ptr noundef %0, ptr noundef %1) #0 {
  %3 = alloca i32, align 4
  %4 = alloca ptr, align 8
  %5 = alloca ptr, align 8
  %6 = alloca ptr, align 8
  %7 = alloca ptr, align 8
  %8 = alloca i32, align 4
  %9 = alloca i32, align 4
  store ptr %0, ptr %4, align 8, !tbaa !4
  store ptr %1, ptr %5, align 8, !tbaa !52
  call void @llvm.lifetime.start.p0(i64 8, ptr %6) #9
  %10 = load ptr, ptr %4, align 8, !tbaa !4
  %11 = getelementptr inbounds nuw %struct.URLContext, ptr %10, i32 0, i32 2
  %12 = load ptr, ptr %11, align 8, !tbaa !13
  store ptr %12, ptr %6, align 8, !tbaa !19
  call void @llvm.lifetime.start.p0(i64 8, ptr %7) #9
  call void @llvm.lifetime.start.p0(i64 4, ptr %8) #9
  br label %13

13:                                               ; preds = %2
  %14 = load ptr, ptr %6, align 8, !tbaa !19
  %15 = getelementptr inbounds nuw %struct.TCPContext, ptr %14, i32 0, i32 2
  %16 = load i32, ptr %15, align 4, !tbaa !23
  %17 = icmp ne i32 %16, 0
  br i1 %17, label %19, label %18

18:                                               ; preds = %13
  call void (ptr, i32, ptr, ...) @av_log(ptr noundef null, i32 noundef 0, ptr noundef @.str.16, ptr noundef @.str.17, ptr noundef @.str.18, i32 noundef 273)
  call void @abort() #12
  unreachable

19:                                               ; preds = %13
  br label %20

20:                                               ; preds = %19
  br label %21

21:                                               ; preds = %20
  %22 = load ptr, ptr %5, align 8, !tbaa !52
  %23 = load ptr, ptr %4, align 8, !tbaa !4
  %24 = getelementptr inbounds nuw %struct.URLContext, ptr %23, i32 0, i32 3
  %25 = load ptr, ptr %24, align 8, !tbaa !55
  %26 = load ptr, ptr %4, align 8, !tbaa !4
  %27 = getelementptr inbounds nuw %struct.URLContext, ptr %26, i32 0, i32 4
  %28 = load i32, ptr %27, align 8, !tbaa !56
  %29 = load ptr, ptr %4, align 8, !tbaa !4
  %30 = getelementptr inbounds nuw %struct.URLContext, ptr %29, i32 0, i32 8
  %31 = call i32 @ffurl_alloc(ptr noundef %22, ptr noundef %25, i32 noundef %28, ptr noundef %30)
  store i32 %31, ptr %8, align 4, !tbaa !11
  %32 = icmp slt i32 %31, 0
  br i1 %32, label %33, label %35

33:                                               ; preds = %21
  %34 = load i32, ptr %8, align 4, !tbaa !11
  store i32 %34, ptr %3, align 4
  store i32 1, ptr %9, align 4
  br label %58

35:                                               ; preds = %21
  %36 = load ptr, ptr %5, align 8, !tbaa !52
  %37 = load ptr, ptr %36, align 8, !tbaa !4
  %38 = getelementptr inbounds nuw %struct.URLContext, ptr %37, i32 0, i32 2
  %39 = load ptr, ptr %38, align 8, !tbaa !13
  store ptr %39, ptr %7, align 8, !tbaa !19
  %40 = load ptr, ptr %6, align 8, !tbaa !19
  %41 = getelementptr inbounds nuw %struct.TCPContext, ptr %40, i32 0, i32 1
  %42 = load i32, ptr %41, align 8, !tbaa !51
  %43 = load ptr, ptr %6, align 8, !tbaa !19
  %44 = getelementptr inbounds nuw %struct.TCPContext, ptr %43, i32 0, i32 7
  %45 = load i32, ptr %44, align 8, !tbaa !27
  %46 = load ptr, ptr %4, align 8, !tbaa !4
  %47 = call i32 @ff_accept(i32 noundef %42, i32 noundef %45, ptr noundef %46)
  store i32 %47, ptr %8, align 4, !tbaa !11
  %48 = load i32, ptr %8, align 4, !tbaa !11
  %49 = icmp slt i32 %48, 0
  br i1 %49, label %50, label %54

50:                                               ; preds = %35
  %51 = load ptr, ptr %5, align 8, !tbaa !52
  %52 = call i32 @ffurl_closep(ptr noundef %51)
  %53 = load i32, ptr %8, align 4, !tbaa !11
  store i32 %53, ptr %3, align 4
  store i32 1, ptr %9, align 4
  br label %58

54:                                               ; preds = %35
  %55 = load i32, ptr %8, align 4, !tbaa !11
  %56 = load ptr, ptr %7, align 8, !tbaa !19
  %57 = getelementptr inbounds nuw %struct.TCPContext, ptr %56, i32 0, i32 1
  store i32 %55, ptr %57, align 8, !tbaa !51
  store i32 0, ptr %3, align 4
  store i32 1, ptr %9, align 4
  br label %58

58:                                               ; preds = %54, %50, %33
  call void @llvm.lifetime.end.p0(i64 4, ptr %8) #9
  call void @llvm.lifetime.end.p0(i64 8, ptr %7) #9
  call void @llvm.lifetime.end.p0(i64 8, ptr %6) #9
  %59 = load i32, ptr %3, align 4
  ret i32 %59
}