; Function Attrs: nounwind uwtable
define internal range(i32 -2147483648, 1) i32 @tcp_accept(ptr noundef %0, ptr noundef %1) #0 {
  %3 = getelementptr inbounds nuw i8, ptr %0, i64 16
  %4 = load ptr, ptr %3, align 8, !tbaa !8
  %5 = getelementptr inbounds nuw i8, ptr %4, i64 12
  %6 = load i32, ptr %5, align 4, !tbaa !30
  %.not = icmp eq i32 %6, 0
  br i1 %.not, label %7, label %8

7:                                                ; preds = %2
  tail call void (ptr, i32, ptr, ...) @av_log(ptr noundef null, i32 noundef 0, ptr noundef nonnull @.str.16, ptr noundef nonnull @.str.17, ptr noundef nonnull @.str.18, i32 noundef 273) #12
  tail call void @abort() #15
  unreachable

8:                                                ; preds = %2
  %9 = getelementptr inbounds nuw i8, ptr %0, i64 24
  %10 = load ptr, ptr %9, align 8, !tbaa !46
  %11 = getelementptr inbounds nuw i8, ptr %0, i64 32
  %12 = load i32, ptr %11, align 8, !tbaa !47
  %13 = getelementptr inbounds nuw i8, ptr %0, i64 48
  %14 = tail call i32 @ffurl_alloc(ptr noundef %1, ptr noundef %10, i32 noundef %12, ptr noundef nonnull %13) #12
  %15 = icmp slt i32 %14, 0
  br i1 %15, label %30, label %16

16:                                               ; preds = %8
  %17 = load ptr, ptr %1, align 8, !tbaa !48
  %18 = getelementptr inbounds nuw i8, ptr %17, i64 16
  %19 = load ptr, ptr %18, align 8, !tbaa !8
  %20 = getelementptr inbounds nuw i8, ptr %4, i64 8
  %21 = load i32, ptr %20, align 8, !tbaa !45
  %22 = getelementptr inbounds nuw i8, ptr %4, i64 40
  %23 = load i32, ptr %22, align 8, !tbaa !22
  %24 = tail call i32 @ff_accept(i32 noundef %21, i32 noundef %23, ptr noundef nonnull %0) #12
  %25 = icmp slt i32 %24, 0
  br i1 %25, label %26, label %28

26:                                               ; preds = %16
  %27 = tail call i32 @ffurl_closep(ptr noundef nonnull %1) #12
  br label %30

28:                                               ; preds = %16
  %29 = getelementptr inbounds nuw i8, ptr %19, i64 8
  store i32 %24, ptr %29, align 8, !tbaa !45
  br label %30

30:                                               ; preds = %8, %28, %26
  %.0 = phi i32 [ %24, %26 ], [ 0, %28 ], [ %14, %8 ]
  ret i32 %.0
}